target datalayout = "e-m:e-p270:32:32-p271:32:32-p272:64:64-i64:64-i128:128-f80:128-n8:16:32:64-S128"
target triple = "x86_64-pc-linux-gnu"

; Function Attrs: uwtable
define hidden noundef zeroext i1 @_ZTvn16_n32_NK5osgeo4proj3crs18DerivedVerticalCRS15_isEquivalentToEPKNS0_4util11IComparableENS4_9CriterionERKSt10shared_ptrINS0_2io15DatabaseContextEE(ptr noundef %0, ptr noundef %1, i32 noundef %2, ptr noundef nonnull align 8 dereferenceable(16) %3) unnamed_addr #0 align 2 {
  %5 = alloca ptr, align 8
  %6 = alloca ptr, align 8
  %7 = alloca i32, align 4
  %8 = alloca ptr, align 8
  store ptr %0, ptr %5, align 8
  store ptr %1, ptr %6, align 8
  store i32 %2, ptr %7, align 4
  store ptr %3, ptr %8, align 8
  %9 = load ptr, ptr %5, align 8
  %10 = getelementptr inbounds i8, ptr %9, i64 -16
  %11 = load ptr, ptr %10, align 8
  %12 = getelementptr inbounds i8, ptr %11, i64 -32
  %13 = load i64, ptr %12, align 8
  %14 = getelementptr inbounds i8, ptr %10, i64 %13
  %15 = load ptr, ptr %6, align 8
  %16 = load i32, ptr %7, align 4
  %17 = load ptr, ptr %8, align 8
  %18 = tail call noundef zeroext i1 @_ZNK5osgeo4proj3crs18DerivedVerticalCRS15_isEquivalentToEPKNS0_4util11IComparableENS4_9CriterionERKSt10shared_ptrINS0_2io15DatabaseContextEE(ptr noundef nonnull align 8 dereferenceable(112) %14, ptr noundef %15, i32 noundef %16, ptr noundef nonnull align 8 dereferenceable(16) %17)
  ret i1 %18
}